; Function Attrs: null_pointer_is_valid sspstrong uwtable
define internal fastcc void @add_varint_item(ptr noundef %0, ptr noundef %1, i32 noundef %2, i32 noundef %3, i32 noundef %4, i32 noundef %5, i32 noundef %6, i32 noundef %7) unnamed_addr #0 {
  switch i32 %3, label %20 [
    i32 1, label %9
    i32 3, label %11
    i32 5, label %14
    i32 9, label %17
  ]

9:                                                ; preds = %8
  %10 = tail call ptr @proto_tree_add_item(ptr noundef %0, i32 noundef %4, ptr noundef %1, i32 noundef %2, i32 noundef 1, i32 noundef -2147483648)
  br label %20

11:                                               ; preds = %8
  %12 = add i32 %2, 1
  %13 = tail call ptr @proto_tree_add_item(ptr noundef %0, i32 noundef %5, ptr noundef %1, i32 noundef %12, i32 noundef 2, i32 noundef -2147483648)
  br label %20

14:                                               ; preds = %8
  %15 = add i32 %2, 1
  %16 = tail call ptr @proto_tree_add_item(ptr noundef %0, i32 noundef %6, ptr noundef %1, i32 noundef %15, i32 noundef 4, i32 noundef -2147483648)
  br label %20

17:                                               ; preds = %8
  %18 = add i32 %2, 1
  %19 = tail call ptr @proto_tree_add_item(ptr noundef %0, i32 noundef %7, ptr noundef %1, i32 noundef %18, i32 noundef 8, i32 noundef -2147483648)
  br label %20

20:                                               ; preds = %17, %14, %11, %9, %8
  ret void
}